#include <math.h>
#include <stdio.h>
#include <stdlib.h>
#include <string.h>

int main(){
	int h,l,i,k,n,hsx,hxx=0,lsx,lxx=0;
	int shu[100][100];
	scanf("%d%d",&h,&l);
	for(i=0;i<h;i++){
		for(k=0;k<l;k++){
			scanf("%d",&(shu[i][k]));
		}
	}
	hsx=h-1;
	lsx=l-1;
	for(n=0;(hsx>hxx)&&(lsx>lxx);n++){
		for(k=lxx;k<lsx;k++){
			printf("%d\n",shu[hxx][k]);
		}
		for(i=hxx;i<hsx;i++){
			printf("%d\n",shu[i][lsx]);
		}
		for(k=lsx;k>lxx;k--){
			printf("%d\n",shu[hsx][k]);
		}
		for(i=hsx;i>hxx;i--){
			printf("%d\n",shu[i][lxx]);
		}
		hsx--;
		hxx++;
		lsx--;
		lxx++;
	}
	    if((hxx==hsx)&&(lsx>lxx)){
			for(k=lxx;k<=lsx;k++){
				printf("%d\n",shu[hxx][k]);
			}
		}
		else if((lxx==lsx)&&(hsx>hxx)){
			for(i=hxx;i<=hsx;i++){
				printf("%d\n",shu[i][lxx]);
			}
		}
		else if((hsx==hxx)&&(lsx==lxx)){
			printf("%d",shu[hxx][lxx]);
		}

	return 0;
}
