; ModuleID = '46/1504.c'
source_filename = "46/1504.c"
target datalayout = "e-m:e-p270:32:32-p271:32:32-p272:64:64-i64:64-f80:128-n8:16:32:64-S128"
target triple = "x86_64-pc-linux-gnu"

@.str = private unnamed_addr constant [5 x i8] c"%d%d\00", align 1
@.str.1 = private unnamed_addr constant [3 x i8] c"%d\00", align 1
@.str.2 = private unnamed_addr constant [4 x i8] c"%d\0A\00", align 1

; Function Attrs: noinline nounwind uwtable
define dso_local i32 @main() #0 {
  %1 = alloca i32, align 4
  %2 = alloca i32, align 4
  %3 = alloca i32, align 4
  %4 = alloca i32, align 4
  %5 = alloca i32, align 4
  %6 = alloca i32, align 4
  %7 = alloca i32, align 4
  %8 = alloca i32, align 4
  %9 = alloca i32, align 4
  %10 = alloca i32, align 4
  %11 = alloca [100 x [100 x i32]], align 16
  store i32 0, i32* %1, align 4
  store i32 0, i32* %8, align 4
  store i32 0, i32* %10, align 4
  %12 = call i32 (i8*, ...) @__isoc99_scanf(i8* getelementptr inbounds ([5 x i8], [5 x i8]* @.str, i64 0, i64 0), i32* %2, i32* %3)
  store i32 0, i32* %4, align 4
  br label %13

13:                                               ; preds = %34, %0
  %14 = load i32, i32* %4, align 4
  %15 = load i32, i32* %2, align 4
  %16 = icmp slt i32 %14, %15
  br i1 %16, label %17, label %37

17:                                               ; preds = %13
  store i32 0, i32* %5, align 4
  br label %18

18:                                               ; preds = %30, %17
  %19 = load i32, i32* %5, align 4
  %20 = load i32, i32* %3, align 4
  %21 = icmp slt i32 %19, %20
  br i1 %21, label %22, label %33

22:                                               ; preds = %18
  %23 = load i32, i32* %4, align 4
  %24 = sext i32 %23 to i64
  %25 = getelementptr inbounds [100 x [100 x i32]], [100 x [100 x i32]]* %11, i64 0, i64 %24
  %26 = load i32, i32* %5, align 4
  %27 = sext i32 %26 to i64
  %28 = getelementptr inbounds [100 x i32], [100 x i32]* %25, i64 0, i64 %27
  %29 = call i32 (i8*, ...) @__isoc99_scanf(i8* getelementptr inbounds ([3 x i8], [3 x i8]* @.str.1, i64 0, i64 0), i32* %28)
  br label %30

30:                                               ; preds = %22
  %31 = load i32, i32* %5, align 4
  %32 = add nsw i32 %31, 1
  store i32 %32, i32* %5, align 4
  br label %18

33:                                               ; preds = %18
  br label %34

34:                                               ; preds = %33
  %35 = load i32, i32* %4, align 4
  %36 = add nsw i32 %35, 1
  store i32 %36, i32* %4, align 4
  br label %13

37:                                               ; preds = %13
  %38 = load i32, i32* %2, align 4
  %39 = sub nsw i32 %38, 1
  store i32 %39, i32* %7, align 4
  %40 = load i32, i32* %3, align 4
  %41 = sub nsw i32 %40, 1
  store i32 %41, i32* %9, align 4
  store i32 0, i32* %6, align 4
  br label %42

42:                                               ; preds = %133, %37
  %43 = load i32, i32* %7, align 4
  %44 = load i32, i32* %8, align 4
  %45 = icmp sgt i32 %43, %44
  br i1 %45, label %46, label %50

46:                                               ; preds = %42
  %47 = load i32, i32* %9, align 4
  %48 = load i32, i32* %10, align 4
  %49 = icmp sgt i32 %47, %48
  br label %50

50:                                               ; preds = %46, %42
  %51 = phi i1 [ false, %42 ], [ %49, %46 ]
  br i1 %51, label %52, label %136

52:                                               ; preds = %50
  %53 = load i32, i32* %10, align 4
  store i32 %53, i32* %5, align 4
  br label %54

54:                                               ; preds = %67, %52
  %55 = load i32, i32* %5, align 4
  %56 = load i32, i32* %9, align 4
  %57 = icmp slt i32 %55, %56
  br i1 %57, label %58, label %70

58:                                               ; preds = %54
  %59 = load i32, i32* %8, align 4
  %60 = sext i32 %59 to i64
  %61 = getelementptr inbounds [100 x [100 x i32]], [100 x [100 x i32]]* %11, i64 0, i64 %60
  %62 = load i32, i32* %5, align 4
  %63 = sext i32 %62 to i64
  %64 = getelementptr inbounds [100 x i32], [100 x i32]* %61, i64 0, i64 %63
  %65 = load i32, i32* %64, align 4
  %66 = call i32 (i8*, ...) @printf(i8* getelementptr inbounds ([4 x i8], [4 x i8]* @.str.2, i64 0, i64 0), i32 %65)
  br label %67

67:                                               ; preds = %58
  %68 = load i32, i32* %5, align 4
  %69 = add nsw i32 %68, 1
  store i32 %69, i32* %5, align 4
  br label %54

70:                                               ; preds = %54
  %71 = load i32, i32* %8, align 4
  store i32 %71, i32* %4, align 4
  br label %72

72:                                               ; preds = %85, %70
  %73 = load i32, i32* %4, align 4
  %74 = load i32, i32* %7, align 4
  %75 = icmp slt i32 %73, %74
  br i1 %75, label %76, label %88

76:                                               ; preds = %72
  %77 = load i32, i32* %4, align 4
  %78 = sext i32 %77 to i64
  %79 = getelementptr inbounds [100 x [100 x i32]], [100 x [100 x i32]]* %11, i64 0, i64 %78
  %80 = load i32, i32* %9, align 4
  %81 = sext i32 %80 to i64
  %82 = getelementptr inbounds [100 x i32], [100 x i32]* %79, i64 0, i64 %81
  %83 = load i32, i32* %82, align 4
  %84 = call i32 (i8*, ...) @printf(i8* getelementptr inbounds ([4 x i8], [4 x i8]* @.str.2, i64 0, i64 0), i32 %83)
  br label %85

85:                                               ; preds = %76
  %86 = load i32, i32* %4, align 4
  %87 = add nsw i32 %86, 1
  store i32 %87, i32* %4, align 4
  br label %72

88:                                               ; preds = %72
  %89 = load i32, i32* %9, align 4
  store i32 %89, i32* %5, align 4
  br label %90

90:                                               ; preds = %103, %88
  %91 = load i32, i32* %5, align 4
  %92 = load i32, i32* %10, align 4
  %93 = icmp sgt i32 %91, %92
  br i1 %93, label %94, label %106

94:                                               ; preds = %90
  %95 = load i32, i32* %7, align 4
  %96 = sext i32 %95 to i64
  %97 = getelementptr inbounds [100 x [100 x i32]], [100 x [100 x i32]]* %11, i64 0, i64 %96
  %98 = load i32, i32* %5, align 4
  %99 = sext i32 %98 to i64
  %100 = getelementptr inbounds [100 x i32], [100 x i32]* %97, i64 0, i64 %99
  %101 = load i32, i32* %100, align 4
  %102 = call i32 (i8*, ...) @printf(i8* getelementptr inbounds ([4 x i8], [4 x i8]* @.str.2, i64 0, i64 0), i32 %101)
  br label %103

103:                                              ; preds = %94
  %104 = load i32, i32* %5, align 4
  %105 = add nsw i32 %104, -1
  store i32 %105, i32* %5, align 4
  br label %90

106:                                              ; preds = %90
  %107 = load i32, i32* %7, align 4
  store i32 %107, i32* %4, align 4
  br label %108

108:                                              ; preds = %121, %106
  %109 = load i32, i32* %4, align 4
  %110 = load i32, i32* %8, align 4
  %111 = icmp sgt i32 %109, %110
  br i1 %111, label %112, label %124

112:                                              ; preds = %108
  %113 = load i32, i32* %4, align 4
  %114 = sext i32 %113 to i64
  %115 = getelementptr inbounds [100 x [100 x i32]], [100 x [100 x i32]]* %11, i64 0, i64 %114
  %116 = load i32, i32* %10, align 4
  %117 = sext i32 %116 to i64
  %118 = getelementptr inbounds [100 x i32], [100 x i32]* %115, i64 0, i64 %117
  %119 = load i32, i32* %118, align 4
  %120 = call i32 (i8*, ...) @printf(i8* getelementptr inbounds ([4 x i8], [4 x i8]* @.str.2, i64 0, i64 0), i32 %119)
  br label %121

121:                                              ; preds = %112
  %122 = load i32, i32* %4, align 4
  %123 = add nsw i32 %122, -1
  store i32 %123, i32* %4, align 4
  br label %108

124:                                              ; preds = %108
  %125 = load i32, i32* %7, align 4
  %126 = add nsw i32 %125, -1
  store i32 %126, i32* %7, align 4
  %127 = load i32, i32* %8, align 4
  %128 = add nsw i32 %127, 1
  store i32 %128, i32* %8, align 4
  %129 = load i32, i32* %9, align 4
  %130 = add nsw i32 %129, -1
  store i32 %130, i32* %9, align 4
  %131 = load i32, i32* %10, align 4
  %132 = add nsw i32 %131, 1
  store i32 %132, i32* %10, align 4
  br label %133

133:                                              ; preds = %124
  %134 = load i32, i32* %6, align 4
  %135 = add nsw i32 %134, 1
  store i32 %135, i32* %6, align 4
  br label %42

136:                                              ; preds = %50
  %137 = load i32, i32* %8, align 4
  %138 = load i32, i32* %7, align 4
  %139 = icmp eq i32 %137, %138
  br i1 %139, label %140, label %163

140:                                              ; preds = %136
  %141 = load i32, i32* %9, align 4
  %142 = load i32, i32* %10, align 4
  %143 = icmp sgt i32 %141, %142
  br i1 %143, label %144, label %163

144:                                              ; preds = %140
  %145 = load i32, i32* %10, align 4
  store i32 %145, i32* %5, align 4
  br label %146

146:                                              ; preds = %159, %144
  %147 = load i32, i32* %5, align 4
  %148 = load i32, i32* %9, align 4
  %149 = icmp sle i32 %147, %148
  br i1 %149, label %150, label %162

150:                                              ; preds = %146
  %151 = load i32, i32* %8, align 4
  %152 = sext i32 %151 to i64
  %153 = getelementptr inbounds [100 x [100 x i32]], [100 x [100 x i32]]* %11, i64 0, i64 %152
  %154 = load i32, i32* %5, align 4
  %155 = sext i32 %154 to i64
  %156 = getelementptr inbounds [100 x i32], [100 x i32]* %153, i64 0, i64 %155
  %157 = load i32, i32* %156, align 4
  %158 = call i32 (i8*, ...) @printf(i8* getelementptr inbounds ([4 x i8], [4 x i8]* @.str.2, i64 0, i64 0), i32 %157)
  br label %159

159:                                              ; preds = %150
  %160 = load i32, i32* %5, align 4
  %161 = add nsw i32 %160, 1
  store i32 %161, i32* %5, align 4
  br label %146

162:                                              ; preds = %146
  br label %209

163:                                              ; preds = %140, %136
  %164 = load i32, i32* %10, align 4
  %165 = load i32, i32* %9, align 4
  %166 = icmp eq i32 %164, %165
  br i1 %166, label %167, label %190

167:                                              ; preds = %163
  %168 = load i32, i32* %7, align 4
  %169 = load i32, i32* %8, align 4
  %170 = icmp sgt i32 %168, %169
  br i1 %170, label %171, label %190

171:                                              ; preds = %167
  %172 = load i32, i32* %8, align 4
  store i32 %172, i32* %4, align 4
  br label %173

173:                                              ; preds = %186, %171
  %174 = load i32, i32* %4, align 4
  %175 = load i32, i32* %7, align 4
  %176 = icmp sle i32 %174, %175
  br i1 %176, label %177, label %189

177:                                              ; preds = %173
  %178 = load i32, i32* %4, align 4
  %179 = sext i32 %178 to i64
  %180 = getelementptr inbounds [100 x [100 x i32]], [100 x [100 x i32]]* %11, i64 0, i64 %179
  %181 = load i32, i32* %10, align 4
  %182 = sext i32 %181 to i64
  %183 = getelementptr inbounds [100 x i32], [100 x i32]* %180, i64 0, i64 %182
  %184 = load i32, i32* %183, align 4
  %185 = call i32 (i8*, ...) @printf(i8* getelementptr inbounds ([4 x i8], [4 x i8]* @.str.2, i64 0, i64 0), i32 %184)
  br label %186

186:                                              ; preds = %177
  %187 = load i32, i32* %4, align 4
  %188 = add nsw i32 %187, 1
  store i32 %188, i32* %4, align 4
  br label %173

189:                                              ; preds = %173
  br label %208

190:                                              ; preds = %167, %163
  %191 = load i32, i32* %7, align 4
  %192 = load i32, i32* %8, align 4
  %193 = icmp eq i32 %191, %192
  br i1 %193, label %194, label %207

194:                                              ; preds = %190
  %195 = load i32, i32* %9, align 4
  %196 = load i32, i32* %10, align 4
  %197 = icmp eq i32 %195, %196
  br i1 %197, label %198, label %207

198:                                              ; preds = %194
  %199 = load i32, i32* %8, align 4
  %200 = sext i32 %199 to i64
  %201 = getelementptr inbounds [100 x [100 x i32]], [100 x [100 x i32]]* %11, i64 0, i64 %200
  %202 = load i32, i32* %10, align 4
  %203 = sext i32 %202 to i64
  %204 = getelementptr inbounds [100 x i32], [100 x i32]* %201, i64 0, i64 %203
  %205 = load i32, i32* %204, align 4
  %206 = call i32 (i8*, ...) @printf(i8* getelementptr inbounds ([3 x i8], [3 x i8]* @.str.1, i64 0, i64 0), i32 %205)
  br label %207

207:                                              ; preds = %198, %194, %190
  br label %208

208:                                              ; preds = %207, %189
  br label %209

209:                                              ; preds = %208, %162
  ret i32 0
}

declare dso_local i32 @__isoc99_scanf(i8*, ...) #1

declare dso_local i32 @printf(i8*, ...) #1


!llvm.module.flags = !{!0}
!llvm.ident = !{!1}

!0 = !{i32 1, !"wchar_size", i32 4}
!1 = !{!"clang version 10.0.0-4ubuntu1 "}
